target datalayout = "e-m:e-p270:32:32-p271:32:32-p272:64:64-i64:64-i128:128-f80:128-n8:16:32:64-S128"
target triple = "x86_64-pc-linux-gnu"

%struct.__va_list_tag = type { i32, i32, ptr, ptr }
%struct.bz2file = type { ptr, ptr, ptr, i32, i32 }

@stdout = external global ptr, align 8
@.str.24 = private unnamed_addr constant [58 x i8] c"Ioa_WriteBlif(): I/O error writing to compressed stream.\0A\00", align 1

; Function Attrs: nounwind uwtable
define i32 @fprintfBz2Aig(ptr noundef %0, ptr noundef %1, ...) #0 {
  %3 = alloca i32, align 4
  %4 = alloca ptr, align 8
  %5 = alloca ptr, align 8
  %6 = alloca ptr, align 8
  %7 = alloca i32, align 4
  %8 = alloca [1 x %struct.__va_list_tag], align 16
  %9 = alloca i32, align 4
  %10 = alloca i32, align 4
  %11 = alloca [1 x %struct.__va_list_tag], align 16
  store ptr %0, ptr %4, align 8, !tbaa !82
  store ptr %1, ptr %5, align 8, !tbaa !3
  %12 = load ptr, ptr %4, align 8, !tbaa !82
  %13 = getelementptr inbounds nuw %struct.bz2file, ptr %12, i32 0, i32 1
  %14 = load ptr, ptr %13, align 8, !tbaa !84
  %15 = icmp ne ptr %14, null
  br i1 %15, label %16, label %114

16:                                               ; preds = %2
  call void @llvm.lifetime.start.p0(i64 8, ptr %6) #10
  call void @llvm.lifetime.start.p0(i64 4, ptr %7) #10
  call void @llvm.lifetime.start.p0(i64 24, ptr %8) #10
  br label %17

17:                                               ; preds = %93, %16
  br label %18

18:                                               ; preds = %17
  %19 = getelementptr inbounds [1 x %struct.__va_list_tag], ptr %8, i64 0, i64 0
  call void @llvm.va_start.p0(ptr %19)
  %20 = load ptr, ptr %4, align 8, !tbaa !82
  %21 = getelementptr inbounds nuw %struct.bz2file, ptr %20, i32 0, i32 2
  %22 = load ptr, ptr %21, align 8, !tbaa !86
  %23 = load ptr, ptr %4, align 8, !tbaa !82
  %24 = getelementptr inbounds nuw %struct.bz2file, ptr %23, i32 0, i32 4
  %25 = load i32, ptr %24, align 4, !tbaa !87
  %26 = sext i32 %25 to i64
  %27 = load ptr, ptr %5, align 8, !tbaa !3
  %28 = getelementptr inbounds [1 x %struct.__va_list_tag], ptr %8, i64 0, i64 0
  %29 = call i32 @vsnprintf(ptr noundef %22, i64 noundef %26, ptr noundef %27, ptr noundef %28) #10
  %30 = load ptr, ptr %4, align 8, !tbaa !82
  %31 = getelementptr inbounds nuw %struct.bz2file, ptr %30, i32 0, i32 3
  store i32 %29, ptr %31, align 8, !tbaa !88
  %32 = getelementptr inbounds [1 x %struct.__va_list_tag], ptr %8, i64 0, i64 0
  call void @llvm.va_end.p0(ptr %32)
  %33 = load ptr, ptr %4, align 8, !tbaa !82
  %34 = getelementptr inbounds nuw %struct.bz2file, ptr %33, i32 0, i32 3
  %35 = load i32, ptr %34, align 8, !tbaa !88
  %36 = icmp sgt i32 %35, -1
  br i1 %36, label %37, label %46

37:                                               ; preds = %18
  %38 = load ptr, ptr %4, align 8, !tbaa !82
  %39 = getelementptr inbounds nuw %struct.bz2file, ptr %38, i32 0, i32 3
  %40 = load i32, ptr %39, align 8, !tbaa !88
  %41 = load ptr, ptr %4, align 8, !tbaa !82
  %42 = getelementptr inbounds nuw %struct.bz2file, ptr %41, i32 0, i32 4
  %43 = load i32, ptr %42, align 4, !tbaa !87
  %44 = icmp slt i32 %40, %43
  br i1 %44, label %45, label %46

45:                                               ; preds = %37
  br label %94

46:                                               ; preds = %37, %18
  %47 = load ptr, ptr %4, align 8, !tbaa !82
  %48 = getelementptr inbounds nuw %struct.bz2file, ptr %47, i32 0, i32 3
  %49 = load i32, ptr %48, align 8, !tbaa !88
  %50 = icmp sgt i32 %49, -1
  br i1 %50, label %51, label %58

51:                                               ; preds = %46
  %52 = load ptr, ptr %4, align 8, !tbaa !82
  %53 = getelementptr inbounds nuw %struct.bz2file, ptr %52, i32 0, i32 3
  %54 = load i32, ptr %53, align 8, !tbaa !88
  %55 = add nsw i32 %54, 1
  %56 = load ptr, ptr %4, align 8, !tbaa !82
  %57 = getelementptr inbounds nuw %struct.bz2file, ptr %56, i32 0, i32 4
  store i32 %55, ptr %57, align 4, !tbaa !87
  br label %63

58:                                               ; preds = %46
  %59 = load ptr, ptr %4, align 8, !tbaa !82
  %60 = getelementptr inbounds nuw %struct.bz2file, ptr %59, i32 0, i32 4
  %61 = load i32, ptr %60, align 4, !tbaa !87
  %62 = mul nsw i32 %61, 2
  store i32 %62, ptr %60, align 4, !tbaa !87
  br label %63

63:                                               ; preds = %58, %51
  %64 = load ptr, ptr %4, align 8, !tbaa !82
  %65 = getelementptr inbounds nuw %struct.bz2file, ptr %64, i32 0, i32 2
  %66 = load ptr, ptr %65, align 8, !tbaa !86
  %67 = icmp ne ptr %66, null
  br i1 %67, label %68, label %78

68:                                               ; preds = %63
  %69 = load ptr, ptr %4, align 8, !tbaa !82
  %70 = getelementptr inbounds nuw %struct.bz2file, ptr %69, i32 0, i32 2
  %71 = load ptr, ptr %70, align 8, !tbaa !86
  %72 = load ptr, ptr %4, align 8, !tbaa !82
  %73 = getelementptr inbounds nuw %struct.bz2file, ptr %72, i32 0, i32 4
  %74 = load i32, ptr %73, align 4, !tbaa !87
  %75 = sext i32 %74 to i64
  %76 = mul i64 1, %75
  %77 = call ptr @realloc(ptr noundef %71, i64 noundef %76) #12
  br label %85

78:                                               ; preds = %63
  %79 = load ptr, ptr %4, align 8, !tbaa !82
  %80 = getelementptr inbounds nuw %struct.bz2file, ptr %79, i32 0, i32 4
  %81 = load i32, ptr %80, align 4, !tbaa !87
  %82 = sext i32 %81 to i64
  %83 = mul i64 1, %82
  %84 = call noalias ptr @malloc(i64 noundef %83) #11
  br label %85

85:                                               ; preds = %78, %68
  %86 = phi ptr [ %77, %68 ], [ %84, %78 ]
  store ptr %86, ptr %6, align 8, !tbaa !3
  %87 = icmp eq ptr %86, null
  br i1 %87, label %88, label %89

88:                                               ; preds = %85
  store i32 -1, ptr %3, align 4
  store i32 1, ptr %9, align 4
  br label %113

89:                                               ; preds = %85
  %90 = load ptr, ptr %6, align 8, !tbaa !3
  %91 = load ptr, ptr %4, align 8, !tbaa !82
  %92 = getelementptr inbounds nuw %struct.bz2file, ptr %91, i32 0, i32 2
  store ptr %90, ptr %92, align 8, !tbaa !86
  br label %93

93:                                               ; preds = %89
  br label %17

94:                                               ; preds = %45
  %95 = load ptr, ptr %4, align 8, !tbaa !82
  %96 = getelementptr inbounds nuw %struct.bz2file, ptr %95, i32 0, i32 1
  %97 = load ptr, ptr %96, align 8, !tbaa !84
  %98 = load ptr, ptr %4, align 8, !tbaa !82
  %99 = getelementptr inbounds nuw %struct.bz2file, ptr %98, i32 0, i32 2
  %100 = load ptr, ptr %99, align 8, !tbaa !86
  %101 = load ptr, ptr %4, align 8, !tbaa !82
  %102 = getelementptr inbounds nuw %struct.bz2file, ptr %101, i32 0, i32 3
  %103 = load i32, ptr %102, align 8, !tbaa !88
  call void @BZ2_bzWrite(ptr noundef %7, ptr noundef %97, ptr noundef %100, i32 noundef %103)
  %104 = load i32, ptr %7, align 4, !tbaa !8
  %105 = icmp eq i32 %104, -6
  br i1 %105, label %106, label %109

106:                                              ; preds = %94
  %107 = load ptr, ptr @stdout, align 8, !tbaa !56
  %108 = call i32 (ptr, ptr, ...) @fprintf(ptr noundef %107, ptr noundef @.str.24) #10
  store i32 -1, ptr %3, align 4
  store i32 1, ptr %9, align 4
  br label %113

109:                                              ; preds = %94
  %110 = load ptr, ptr %4, align 8, !tbaa !82
  %111 = getelementptr inbounds nuw %struct.bz2file, ptr %110, i32 0, i32 3
  %112 = load i32, ptr %111, align 8, !tbaa !88
  store i32 %112, ptr %3, align 4
  store i32 1, ptr %9, align 4
  br label %113

113:                                              ; preds = %109, %106, %88
  call void @llvm.lifetime.end.p0(i64 24, ptr %8) #10
  call void @llvm.lifetime.end.p0(i64 4, ptr %7) #10
  call void @llvm.lifetime.end.p0(i64 8, ptr %6) #10
  br label %124

114:                                              ; preds = %2
  call void @llvm.lifetime.start.p0(i64 4, ptr %10) #10
  call void @llvm.lifetime.start.p0(i64 24, ptr %11) #10
  %115 = getelementptr inbounds [1 x %struct.__va_list_tag], ptr %11, i64 0, i64 0
  call void @llvm.va_start.p0(ptr %115)
  %116 = load ptr, ptr %4, align 8, !tbaa !82
  %117 = getelementptr inbounds nuw %struct.bz2file, ptr %116, i32 0, i32 0
  %118 = load ptr, ptr %117, align 8, !tbaa !89
  %119 = load ptr, ptr %5, align 8, !tbaa !3
  %120 = getelementptr inbounds [1 x %struct.__va_list_tag], ptr %11, i64 0, i64 0
  %121 = call i32 @vfprintf(ptr noundef %118, ptr noundef %119, ptr noundef %120) #10
  store i32 %121, ptr %10, align 4, !tbaa !8
  %122 = getelementptr inbounds [1 x %struct.__va_list_tag], ptr %11, i64 0, i64 0
  call void @llvm.va_end.p0(ptr %122)
  %123 = load i32, ptr %10, align 4, !tbaa !8
  store i32 %123, ptr %3, align 4
  store i32 1, ptr %9, align 4
  call void @llvm.lifetime.end.p0(i64 24, ptr %11) #10
  call void @llvm.lifetime.end.p0(i64 4, ptr %10) #10
  br label %124

124:                                              ; preds = %114, %113
  %125 = load i32, ptr %3, align 4
  ret i32 %125
}