; Function Attrs: nounwind uwtable
define i32 @fprintfBz2Aig(ptr noundef captures(none) %0, ptr noundef readonly captures(none) %1, ...) local_unnamed_addr #2 {
  %3 = alloca i32, align 4
  %4 = alloca [1 x %struct.__va_list_tag], align 16
  %5 = alloca [1 x %struct.__va_list_tag], align 16
  %6 = getelementptr inbounds nuw i8, ptr %0, i64 8
  %7 = load ptr, ptr %6, align 8, !tbaa !74
  %.not = icmp eq ptr %7, null
  br i1 %.not, label %47, label %8

8:                                                ; preds = %2
  call void @llvm.lifetime.start.p0(i64 4, ptr nonnull %3) #15
  call void @llvm.lifetime.start.p0(i64 24, ptr nonnull %4) #15
  %9 = getelementptr inbounds nuw i8, ptr %0, i64 16
  %10 = getelementptr inbounds nuw i8, ptr %0, i64 28
  %11 = getelementptr inbounds nuw i8, ptr %0, i64 24
  br label %12

12:                                               ; preds = %36, %8
  call void @llvm.va_start.p0(ptr nonnull %4)
  %13 = load ptr, ptr %9, align 8, !tbaa !76
  %14 = load i32, ptr %10, align 4, !tbaa !77
  %15 = sext i32 %14 to i64
  %16 = call i32 @vsnprintf(ptr noundef %13, i64 noundef %15, ptr noundef %1, ptr noundef nonnull %4) #15
  store i32 %16, ptr %11, align 8, !tbaa !78
  call void @llvm.va_end.p0(ptr nonnull %4)
  %17 = load i32, ptr %11, align 8, !tbaa !78
  %18 = icmp sgt i32 %17, -1
  %19 = load i32, ptr %10, align 4, !tbaa !77
  br i1 %18, label %20, label %24

20:                                               ; preds = %12
  %21 = icmp slt i32 %17, %19
  br i1 %21, label %37, label %22

22:                                               ; preds = %20
  %23 = add nuw nsw i32 %17, 1
  br label %26

24:                                               ; preds = %12
  %25 = shl nsw i32 %19, 1
  br label %26

26:                                               ; preds = %24, %22
  %storemerge = phi i32 [ %25, %24 ], [ %23, %22 ]
  store i32 %storemerge, ptr %10, align 4, !tbaa !77
  %27 = load ptr, ptr %9, align 8, !tbaa !76
  %.not29 = icmp eq ptr %27, null
  %28 = sext i32 %storemerge to i64
  br i1 %.not29, label %31, label %29

29:                                               ; preds = %26
  %30 = call ptr @realloc(ptr noundef nonnull %27, i64 noundef %28) #14
  br label %33

31:                                               ; preds = %26
  %32 = call noalias ptr @malloc(i64 noundef %28) #13
  br label %33

33:                                               ; preds = %31, %29
  %34 = phi ptr [ %30, %29 ], [ %32, %31 ]
  %35 = icmp eq ptr %34, null
  br i1 %35, label %.loopexit, label %36

36:                                               ; preds = %33
  store ptr %34, ptr %9, align 8, !tbaa !76
  br label %12

37:                                               ; preds = %20
  %38 = load ptr, ptr %6, align 8, !tbaa !74
  %39 = load ptr, ptr %9, align 8, !tbaa !76
  call void @BZ2_bzWrite(ptr noundef nonnull %3, ptr noundef %38, ptr noundef %39, i32 noundef %17) #15
  %40 = load i32, ptr %3, align 4, !tbaa !41
  %41 = icmp eq i32 %40, -6
  br i1 %41, label %42, label %45

42:                                               ; preds = %37
  %43 = load ptr, ptr @stdout, align 8, !tbaa !50
  %44 = call i64 @fwrite(ptr nonnull @.str.24, i64 57, i64 1, ptr %43)
  br label %.loopexit

45:                                               ; preds = %37
  %46 = load i32, ptr %11, align 8, !tbaa !78
  br label %.loopexit

.loopexit:                                        ; preds = %33, %45, %42
  %.0 = phi i32 [ -1, %42 ], [ %46, %45 ], [ -1, %33 ]
  call void @llvm.lifetime.end.p0(i64 24, ptr nonnull %4) #15
  call void @llvm.lifetime.end.p0(i64 4, ptr nonnull %3) #15
  br label %50

47:                                               ; preds = %2
  call void @llvm.lifetime.start.p0(i64 24, ptr nonnull %5) #15
  call void @llvm.va_start.p0(ptr nonnull %5)
  %48 = load ptr, ptr %0, align 8, !tbaa !79
  %49 = call i32 @vfprintf(ptr noundef %48, ptr noundef %1, ptr noundef nonnull %5) #15
  call void @llvm.va_end.p0(ptr nonnull %5)
  call void @llvm.lifetime.end.p0(i64 24, ptr nonnull %5) #15
  br label %50

50:                                               ; preds = %47, %.loopexit
  %.1 = phi i32 [ %.0, %.loopexit ], [ %49, %47 ]
  ret i32 %.1
}